target datalayout = "e-m:e-p270:32:32-p271:32:32-p272:64:64-i64:64-i128:128-f80:128-n8:16:32:64-S128"
target triple = "x86_64-unknown-linux-gnu"

%class.btSimpleBroadphase = type { %class.btBroadphaseInterface, i32, i32, i32, ptr, ptr, i32, ptr, i8, i32 }
%class.btBroadphaseInterface = type { ptr }
%struct.btSimpleBroadphaseProxy = type { %struct.btBroadphaseProxy.base, i32 }
%struct.btBroadphaseProxy.base = type <{ ptr, i32, i32, i32, %class.btVector3, %class.btVector3 }>
%class.btVector3 = type { [4 x float] }
%struct.btBroadphaseProxy = type <{ ptr, i32, i32, i32, %class.btVector3, %class.btVector3, [4 x i8] }>

; Function Attrs: mustprogress nounwind uwtable
define linkonce_odr dso_local void @_ZN17btBroadphaseProxyC2ERK9btVector3S2_Pvii(ptr noundef nonnull align 8 dereferenceable(52) %this, ptr noundef nonnull align 4 dereferenceable(16) %aabbMin, ptr noundef nonnull align 4 dereferenceable(16) %aabbMax, ptr noundef %userPtr, i32 noundef %collisionFilterGroup, i32 noundef %collisionFilterMask) unnamed_addr #1 comdat align 2 {
entry:
  %this.addr = alloca ptr, align 8
  %aabbMin.addr = alloca ptr, align 8
  %aabbMax.addr = alloca ptr, align 8
  %userPtr.addr = alloca ptr, align 8
  %collisionFilterGroup.addr = alloca i32, align 4
  %collisionFilterMask.addr = alloca i32, align 4
  store ptr %this, ptr %this.addr, align 8
  store ptr %aabbMin, ptr %aabbMin.addr, align 8
  store ptr %aabbMax, ptr %aabbMax.addr, align 8
  store ptr %userPtr, ptr %userPtr.addr, align 8
  store i32 %collisionFilterGroup, ptr %collisionFilterGroup.addr, align 4
  store i32 %collisionFilterMask, ptr %collisionFilterMask.addr, align 4
  %this1 = load ptr, ptr %this.addr, align 8
  %m_clientObject = getelementptr inbounds %struct.btBroadphaseProxy, ptr %this1, i32 0, i32 0
  %0 = load ptr, ptr %userPtr.addr, align 8
  store ptr %0, ptr %m_clientObject, align 8
  %m_collisionFilterGroup = getelementptr inbounds %struct.btBroadphaseProxy, ptr %this1, i32 0, i32 1
  %1 = load i32, ptr %collisionFilterGroup.addr, align 4
  store i32 %1, ptr %m_collisionFilterGroup, align 8
  %m_collisionFilterMask = getelementptr inbounds %struct.btBroadphaseProxy, ptr %this1, i32 0, i32 2
  %2 = load i32, ptr %collisionFilterMask.addr, align 4
  store i32 %2, ptr %m_collisionFilterMask, align 4
  %m_aabbMin = getelementptr inbounds %struct.btBroadphaseProxy, ptr %this1, i32 0, i32 4
  %3 = load ptr, ptr %aabbMin.addr, align 8
  call void @llvm.memcpy.p0.p0.i64(ptr align 4 %m_aabbMin, ptr align 4 %3, i64 16, i1 false)
  %m_aabbMax = getelementptr inbounds %struct.btBroadphaseProxy, ptr %this1, i32 0, i32 5
  %4 = load ptr, ptr %aabbMax.addr, align 8
  call void @llvm.memcpy.p0.p0.i64(ptr align 4 %m_aabbMax, ptr align 4 %4, i64 16, i1 false)
  ret void
}

; Function Attrs: mustprogress nounwind uwtable
define linkonce_odr dso_local noundef i32 @_ZNK23btSimpleBroadphaseProxy11GetNextFreeEv(ptr noundef nonnull align 8 dereferenceable(56) %this) #1 comdat align 2 {
entry:
  %this.addr = alloca ptr, align 8
  store ptr %this, ptr %this.addr, align 8
  %this1 = load ptr, ptr %this.addr, align 8
  %m_nextFree = getelementptr inbounds %struct.btSimpleBroadphaseProxy, ptr %this1, i32 0, i32 1
  %0 = load i32, ptr %m_nextFree, align 4
  ret i32 %0
}

; Function Attrs: mustprogress nounwind uwtable
define linkonce_odr dso_local void @_ZN17btBroadphaseProxydlEPvS0_(ptr noundef %0, ptr noundef %1) #1 comdat align 2 {
entry:
  %.addr = alloca ptr, align 8
  %.addr1 = alloca ptr, align 8
  store ptr %0, ptr %.addr, align 8
  store ptr %1, ptr %.addr1, align 8
  ret void
}

; Function Attrs: mustprogress uwtable
define linkonce_odr dso_local void @_ZN23btSimpleBroadphaseProxyC2ERK9btVector3S2_iPvii(ptr noundef nonnull align 8 dereferenceable(56) %this, ptr noundef nonnull align 4 dereferenceable(16) %minpt, ptr noundef nonnull align 4 dereferenceable(16) %maxpt, i32 noundef %shapeType, ptr noundef %userPtr, i32 noundef %collisionFilterGroup, i32 noundef %collisionFilterMask) unnamed_addr #2 comdat align 2 {
entry:
  %this.addr = alloca ptr, align 8
  %minpt.addr = alloca ptr, align 8
  %maxpt.addr = alloca ptr, align 8
  %shapeType.addr = alloca i32, align 4
  %userPtr.addr = alloca ptr, align 8
  %collisionFilterGroup.addr = alloca i32, align 4
  %collisionFilterMask.addr = alloca i32, align 4
  store ptr %this, ptr %this.addr, align 8
  store ptr %minpt, ptr %minpt.addr, align 8
  store ptr %maxpt, ptr %maxpt.addr, align 8
  store i32 %shapeType, ptr %shapeType.addr, align 4
  store ptr %userPtr, ptr %userPtr.addr, align 8
  store i32 %collisionFilterGroup, ptr %collisionFilterGroup.addr, align 4
  store i32 %collisionFilterMask, ptr %collisionFilterMask.addr, align 4
  %this1 = load ptr, ptr %this.addr, align 8
  %0 = load ptr, ptr %minpt.addr, align 8
  %1 = load ptr, ptr %maxpt.addr, align 8
  %2 = load ptr, ptr %userPtr.addr, align 8
  %3 = load i32, ptr %collisionFilterGroup.addr, align 4
  %4 = load i32, ptr %collisionFilterMask.addr, align 4
  call void @_ZN17btBroadphaseProxyC2ERK9btVector3S2_Pvii(ptr noundef nonnull align 8 dereferenceable(52) %this1, ptr noundef nonnull align 4 dereferenceable(16) %0, ptr noundef nonnull align 4 dereferenceable(16) %1, ptr noundef %2, i32 noundef %3, i32 noundef %4)
  ret void
}

; Function Attrs: mustprogress nounwind uwtable
define linkonce_odr dso_local noundef ptr @_ZN17btBroadphaseProxynwEmPv(i64 noundef %0, ptr noundef %ptr) #1 comdat align 2 {
entry:
  %.addr = alloca i64, align 8
  %ptr.addr = alloca ptr, align 8
  store i64 %0, ptr %.addr, align 8
  store ptr %ptr, ptr %ptr.addr, align 8
  %1 = load ptr, ptr %ptr.addr, align 8
  ret ptr %1
}

; Function Attrs: mustprogress uwtable
define linkonce_odr dso_local noundef i32 @_ZN18btSimpleBroadphase11allocHandleEv(ptr noundef nonnull align 8 dereferenceable(64) %this) #2 comdat align 2 {
entry:
  %this.addr = alloca ptr, align 8
  %freeHandle = alloca i32, align 4
  store ptr %this, ptr %this.addr, align 8
  %this1 = load ptr, ptr %this.addr, align 8
  %m_firstFreeHandle = getelementptr inbounds %class.btSimpleBroadphase, ptr %this1, i32 0, i32 6
  %0 = load i32, ptr %m_firstFreeHandle, align 8
  store i32 %0, ptr %freeHandle, align 4
  %m_pHandles = getelementptr inbounds %class.btSimpleBroadphase, ptr %this1, i32 0, i32 4
  %1 = load ptr, ptr %m_pHandles, align 8
  %2 = load i32, ptr %freeHandle, align 4
  %idxprom = sext i32 %2 to i64
  %arrayidx = getelementptr inbounds %struct.btSimpleBroadphaseProxy, ptr %1, i64 %idxprom
  %call = call noundef i32 @_ZNK23btSimpleBroadphaseProxy11GetNextFreeEv(ptr noundef nonnull align 8 dereferenceable(56) %arrayidx)
  %m_firstFreeHandle2 = getelementptr inbounds %class.btSimpleBroadphase, ptr %this1, i32 0, i32 6
  store i32 %call, ptr %m_firstFreeHandle2, align 8
  %m_numHandles = getelementptr inbounds %class.btSimpleBroadphase, ptr %this1, i32 0, i32 1
  %3 = load i32, ptr %m_numHandles, align 8
  %inc = add nsw i32 %3, 1
  store i32 %inc, ptr %m_numHandles, align 8
  %4 = load i32, ptr %freeHandle, align 4
  %m_LastHandleIndex = getelementptr inbounds %class.btSimpleBroadphase, ptr %this1, i32 0, i32 3
  %5 = load i32, ptr %m_LastHandleIndex, align 8
  %cmp = icmp sgt i32 %4, %5
  br i1 %cmp, label %if.then, label %if.end

if.then:                                          ; preds = %entry
  %6 = load i32, ptr %freeHandle, align 4
  %m_LastHandleIndex3 = getelementptr inbounds %class.btSimpleBroadphase, ptr %this1, i32 0, i32 3
  store i32 %6, ptr %m_LastHandleIndex3, align 8
  br label %if.end

if.end:                                           ; preds = %if.then, %entry
  %7 = load i32, ptr %freeHandle, align 4
  ret i32 %7
}

; Function Attrs: mustprogress uwtable
define dso_local noundef ptr @_ZN18btSimpleBroadphase11createProxyERK9btVector3S2_iPviiP12btDispatcher(ptr noundef nonnull align 8 dereferenceable(64) %this, ptr noundef nonnull align 4 dereferenceable(16) %aabbMin, ptr noundef nonnull align 4 dereferenceable(16) %aabbMax, i32 noundef %shapeType, ptr noundef %userPtr, i32 noundef %collisionFilterGroup, i32 noundef %collisionFilterMask, ptr noundef %0) unnamed_addr #2 align 2 personality ptr @__gxx_personality_v0 {
entry:
  %retval = alloca ptr, align 8
  %this.addr = alloca ptr, align 8
  %aabbMin.addr = alloca ptr, align 8
  %aabbMax.addr = alloca ptr, align 8
  %shapeType.addr = alloca i32, align 4
  %userPtr.addr = alloca ptr, align 8
  %collisionFilterGroup.addr = alloca i32, align 4
  %collisionFilterMask.addr = alloca i32, align 4
  %.addr = alloca ptr, align 8
  %newHandleIndex = alloca i32, align 4
  %proxy = alloca ptr, align 8
  %exn.slot = alloca ptr, align 8
  %ehselector.slot = alloca i32, align 4
  store ptr %this, ptr %this.addr, align 8
  store ptr %aabbMin, ptr %aabbMin.addr, align 8
  store ptr %aabbMax, ptr %aabbMax.addr, align 8
  store i32 %shapeType, ptr %shapeType.addr, align 4
  store ptr %userPtr, ptr %userPtr.addr, align 8
  store i32 %collisionFilterGroup, ptr %collisionFilterGroup.addr, align 4
  store i32 %collisionFilterMask, ptr %collisionFilterMask.addr, align 4
  store ptr %0, ptr %.addr, align 8
  %this1 = load ptr, ptr %this.addr, align 8
  %m_numHandles = getelementptr inbounds %class.btSimpleBroadphase, ptr %this1, i32 0, i32 1
  %1 = load i32, ptr %m_numHandles, align 8
  %m_maxHandles = getelementptr inbounds %class.btSimpleBroadphase, ptr %this1, i32 0, i32 2
  %2 = load i32, ptr %m_maxHandles, align 4
  %cmp = icmp sge i32 %1, %2
  br i1 %cmp, label %if.then, label %if.end

if.then:                                          ; preds = %entry
  store ptr null, ptr %retval, align 8
  br label %return

if.end:                                           ; preds = %entry
  %call = call noundef i32 @_ZN18btSimpleBroadphase11allocHandleEv(ptr noundef nonnull align 8 dereferenceable(64) %this1)
  store i32 %call, ptr %newHandleIndex, align 4
  %m_pHandles = getelementptr inbounds %class.btSimpleBroadphase, ptr %this1, i32 0, i32 4
  %3 = load ptr, ptr %m_pHandles, align 8
  %4 = load i32, ptr %newHandleIndex, align 4
  %idxprom = sext i32 %4 to i64
  %arrayidx = getelementptr inbounds %struct.btSimpleBroadphaseProxy, ptr %3, i64 %idxprom
  %call2 = call noundef ptr @_ZN17btBroadphaseProxynwEmPv(i64 noundef 56, ptr noundef %arrayidx)
  %5 = load ptr, ptr %aabbMin.addr, align 8
  %6 = load ptr, ptr %aabbMax.addr, align 8
  %7 = load i32, ptr %shapeType.addr, align 4
  %8 = load ptr, ptr %userPtr.addr, align 8
  %9 = load i32, ptr %collisionFilterGroup.addr, align 4
  %10 = load i32, ptr %collisionFilterMask.addr, align 4
  invoke void @_ZN23btSimpleBroadphaseProxyC2ERK9btVector3S2_iPvii(ptr noundef nonnull align 8 dereferenceable(56) %call2, ptr noundef nonnull align 4 dereferenceable(16) %5, ptr noundef nonnull align 4 dereferenceable(16) %6, i32 noundef %7, ptr noundef %8, i32 noundef %9, i32 noundef %10)
          to label %invoke.cont unwind label %lpad

invoke.cont:                                      ; preds = %if.end
  store ptr %call2, ptr %proxy, align 8
  %11 = load ptr, ptr %proxy, align 8
  store ptr %11, ptr %retval, align 8
  br label %return

lpad:                                             ; preds = %if.end
  %12 = landingpad { ptr, i32 }
          cleanup
  %13 = extractvalue { ptr, i32 } %12, 0
  store ptr %13, ptr %exn.slot, align 8
  %14 = extractvalue { ptr, i32 } %12, 1
  store i32 %14, ptr %ehselector.slot, align 4
  call void @_ZN17btBroadphaseProxydlEPvS0_(ptr noundef %call2, ptr noundef %arrayidx) #9
  br label %eh.resume

return:                                           ; preds = %invoke.cont, %if.then
  %15 = load ptr, ptr %retval, align 8
  ret ptr %15

eh.resume:                                        ; preds = %lpad
  %exn = load ptr, ptr %exn.slot, align 8
  %sel = load i32, ptr %ehselector.slot, align 4
  %lpad.val = insertvalue { ptr, i32 } poison, ptr %exn, 0
  %lpad.val3 = insertvalue { ptr, i32 } %lpad.val, i32 %sel, 1
  resume { ptr, i32 } %lpad.val3
}