; Function Attrs: mustprogress nofree norecurse nosync nounwind willreturn memory(readwrite, inaccessiblemem: none) uwtable
define dso_local noundef ptr @_ZN18btSimpleBroadphase11createProxyERK9btVector3S2_iPviiP12btDispatcher(ptr nocapture noundef nonnull align 8 dereferenceable(64) %this, ptr nocapture noundef nonnull readonly align 4 dereferenceable(16) %aabbMin, ptr nocapture noundef nonnull readonly align 4 dereferenceable(16) %aabbMax, i32 %shapeType, ptr noundef %userPtr, i32 noundef %collisionFilterGroup, i32 noundef %collisionFilterMask, ptr nocapture readnone %0) unnamed_addr #6 align 2 personality ptr @__gxx_personality_v0 {
entry:
  %m_numHandles = getelementptr inbounds i8, ptr %this, i64 8
  %1 = load i32, ptr %m_numHandles, align 8
  %m_maxHandles = getelementptr inbounds i8, ptr %this, i64 12
  %2 = load i32, ptr %m_maxHandles, align 4
  %cmp.not = icmp slt i32 %1, %2
  br i1 %cmp.not, label %if.end, label %return

if.end:                                           ; preds = %entry
  %m_firstFreeHandle.i = getelementptr inbounds i8, ptr %this, i64 40
  %3 = load i32, ptr %m_firstFreeHandle.i, align 8
  %m_pHandles.i = getelementptr inbounds i8, ptr %this, i64 24
  %4 = load ptr, ptr %m_pHandles.i, align 8
  %idxprom.i = sext i32 %3 to i64
  %m_nextFree.i.i = getelementptr inbounds %struct.btSimpleBroadphaseProxy, ptr %4, i64 %idxprom.i, i32 1
  %5 = load i32, ptr %m_nextFree.i.i, align 4
  store i32 %5, ptr %m_firstFreeHandle.i, align 8
  %inc.i = add nsw i32 %1, 1
  store i32 %inc.i, ptr %m_numHandles, align 8
  %m_LastHandleIndex.i = getelementptr inbounds i8, ptr %this, i64 16
  %6 = load i32, ptr %m_LastHandleIndex.i, align 8
  %cmp.i = icmp sgt i32 %3, %6
  br i1 %cmp.i, label %if.then.i, label %_ZN18btSimpleBroadphase11allocHandleEv.exit

if.then.i:                                        ; preds = %if.end
  store i32 %3, ptr %m_LastHandleIndex.i, align 8
  br label %_ZN18btSimpleBroadphase11allocHandleEv.exit

_ZN18btSimpleBroadphase11allocHandleEv.exit:      ; preds = %if.end, %if.then.i
  %arrayidx = getelementptr inbounds %struct.btSimpleBroadphaseProxy, ptr %4, i64 %idxprom.i
  store ptr %userPtr, ptr %arrayidx, align 8
  %m_collisionFilterGroup.i.i = getelementptr inbounds i8, ptr %arrayidx, i64 8
  store i32 %collisionFilterGroup, ptr %m_collisionFilterGroup.i.i, align 8
  %m_collisionFilterMask.i.i = getelementptr inbounds i8, ptr %arrayidx, i64 12
  store i32 %collisionFilterMask, ptr %m_collisionFilterMask.i.i, align 4
  %m_aabbMin.i.i = getelementptr inbounds i8, ptr %arrayidx, i64 20
  tail call void @llvm.memcpy.p0.p0.i64(ptr noundef nonnull align 4 dereferenceable(16) %m_aabbMin.i.i, ptr noundef nonnull align 4 dereferenceable(16) %aabbMin, i64 16, i1 false)
  %m_aabbMax.i.i = getelementptr inbounds i8, ptr %arrayidx, i64 36
  tail call void @llvm.memcpy.p0.p0.i64(ptr noundef nonnull align 4 dereferenceable(16) %m_aabbMax.i.i, ptr noundef nonnull align 4 dereferenceable(16) %aabbMax, i64 16, i1 false)
  br label %return

return:                                           ; preds = %_ZN18btSimpleBroadphase11allocHandleEv.exit, %entry
  %retval.0 = phi ptr [ null, %entry ], [ %arrayidx, %_ZN18btSimpleBroadphase11allocHandleEv.exit ]
  ret ptr %retval.0
}